target datalayout = "e-m:e-p270:32:32-p271:32:32-p272:64:64-i64:64-i128:128-f80:128-n8:16:32:64-S128"
target triple = "x86_64-pc-linux-gnu"

%struct.FT_StreamRec_ = type { ptr, i64, i64, %union.FT_StreamDesc_, %union.FT_StreamDesc_, ptr, ptr, ptr, ptr, ptr }
%union.FT_StreamDesc_ = type { i64 }
%struct.FT_GZipFileRec_ = type { ptr, ptr, ptr, %struct.z_stream_s, i64, [4096 x i8], [4096 x i8], i64, ptr, ptr }
%struct.z_stream_s = type { ptr, i32, i64, ptr, i32, i64, ptr, ptr, ptr, ptr, ptr, i32, i64, i64 }

@.str = private unnamed_addr constant [7 x i8] c"1.2.11\00", align 1

; Function Attrs: nounwind uwtable
define internal void @ft_gzip_file_done(ptr noundef %0) #0 {
  %2 = alloca ptr, align 8
  %3 = alloca ptr, align 8
  store ptr %0, ptr %2, align 8
  %4 = load ptr, ptr %2, align 8
  %5 = getelementptr inbounds %struct.FT_GZipFileRec_, ptr %4, i32 0, i32 3
  store ptr %5, ptr %3, align 8
  %6 = load ptr, ptr %3, align 8
  %7 = call i32 @inflateEnd(ptr noundef %6)
  %8 = load ptr, ptr %3, align 8
  %9 = getelementptr inbounds %struct.z_stream_s, ptr %8, i32 0, i32 8
  store ptr null, ptr %9, align 8
  %10 = load ptr, ptr %3, align 8
  %11 = getelementptr inbounds %struct.z_stream_s, ptr %10, i32 0, i32 9
  store ptr null, ptr %11, align 8
  %12 = load ptr, ptr %3, align 8
  %13 = getelementptr inbounds %struct.z_stream_s, ptr %12, i32 0, i32 10
  store ptr null, ptr %13, align 8
  %14 = load ptr, ptr %3, align 8
  %15 = getelementptr inbounds %struct.z_stream_s, ptr %14, i32 0, i32 0
  store ptr null, ptr %15, align 8
  %16 = load ptr, ptr %3, align 8
  %17 = getelementptr inbounds %struct.z_stream_s, ptr %16, i32 0, i32 3
  store ptr null, ptr %17, align 8
  %18 = load ptr, ptr %3, align 8
  %19 = getelementptr inbounds %struct.z_stream_s, ptr %18, i32 0, i32 1
  store i32 0, ptr %19, align 8
  %20 = load ptr, ptr %3, align 8
  %21 = getelementptr inbounds %struct.z_stream_s, ptr %20, i32 0, i32 4
  store i32 0, ptr %21, align 8
  %22 = load ptr, ptr %2, align 8
  %23 = getelementptr inbounds %struct.FT_GZipFileRec_, ptr %22, i32 0, i32 2
  store ptr null, ptr %23, align 8
  %24 = load ptr, ptr %2, align 8
  %25 = getelementptr inbounds %struct.FT_GZipFileRec_, ptr %24, i32 0, i32 0
  store ptr null, ptr %25, align 8
  %26 = load ptr, ptr %2, align 8
  %27 = getelementptr inbounds %struct.FT_GZipFileRec_, ptr %26, i32 0, i32 1
  store ptr null, ptr %27, align 8
  ret void
}

; Function Attrs: nounwind uwtable
define internal i64 @ft_gzip_get_uncompressed_size(ptr noundef %0) #0 {
  %2 = alloca ptr, align 8
  %3 = alloca i32, align 4
  %4 = alloca i64, align 8
  %5 = alloca i64, align 8
  store ptr %0, ptr %2, align 8
  store i64 0, ptr %5, align 8
  %6 = load ptr, ptr %2, align 8
  %7 = getelementptr inbounds %struct.FT_StreamRec_, ptr %6, i32 0, i32 2
  %8 = load i64, ptr %7, align 8
  store i64 %8, ptr %4, align 8
  %9 = load ptr, ptr %2, align 8
  %10 = load ptr, ptr %2, align 8
  %11 = getelementptr inbounds %struct.FT_StreamRec_, ptr %10, i32 0, i32 1
  %12 = load i64, ptr %11, align 8
  %13 = sub i64 %12, 4
  %14 = call i32 @FT_Stream_Seek(ptr noundef %9, i64 noundef %13)
  %15 = icmp ne i32 %14, 0
  br i1 %15, label %27, label %16

16:                                               ; preds = %1
  %17 = load ptr, ptr %2, align 8
  %18 = call i32 @FT_Stream_ReadULongLE(ptr noundef %17, ptr noundef %3)
  %19 = zext i32 %18 to i64
  store i64 %19, ptr %5, align 8
  %20 = load i32, ptr %3, align 4
  %21 = icmp ne i32 %20, 0
  br i1 %21, label %22, label %23

22:                                               ; preds = %16
  store i64 0, ptr %5, align 8
  br label %23

23:                                               ; preds = %22, %16
  %24 = load ptr, ptr %2, align 8
  %25 = load i64, ptr %4, align 8
  %26 = call i32 @FT_Stream_Seek(ptr noundef %24, i64 noundef %25)
  br label %27

27:                                               ; preds = %23, %1
  %28 = load i64, ptr %5, align 8
  ret i64 %28
}

; Function Attrs: nounwind uwtable
define internal i32 @ft_gzip_file_init(ptr noundef %0, ptr noundef %1, ptr noundef %2) #0 {
  %4 = alloca ptr, align 8
  %5 = alloca ptr, align 8
  %6 = alloca ptr, align 8
  %7 = alloca ptr, align 8
  %8 = alloca i32, align 4
  store ptr %0, ptr %4, align 8
  store ptr %1, ptr %5, align 8
  store ptr %2, ptr %6, align 8
  %9 = load ptr, ptr %4, align 8
  %10 = getelementptr inbounds %struct.FT_GZipFileRec_, ptr %9, i32 0, i32 3
  store ptr %10, ptr %7, align 8
  store i32 0, ptr %8, align 4
  %11 = load ptr, ptr %5, align 8
  %12 = load ptr, ptr %4, align 8
  %13 = getelementptr inbounds %struct.FT_GZipFileRec_, ptr %12, i32 0, i32 1
  store ptr %11, ptr %13, align 8
  %14 = load ptr, ptr %6, align 8
  %15 = load ptr, ptr %4, align 8
  %16 = getelementptr inbounds %struct.FT_GZipFileRec_, ptr %15, i32 0, i32 0
  store ptr %14, ptr %16, align 8
  %17 = load ptr, ptr %5, align 8
  %18 = getelementptr inbounds %struct.FT_StreamRec_, ptr %17, i32 0, i32 7
  %19 = load ptr, ptr %18, align 8
  %20 = load ptr, ptr %4, align 8
  %21 = getelementptr inbounds %struct.FT_GZipFileRec_, ptr %20, i32 0, i32 2
  store ptr %19, ptr %21, align 8
  %22 = load ptr, ptr %4, align 8
  %23 = getelementptr inbounds %struct.FT_GZipFileRec_, ptr %22, i32 0, i32 6
  %24 = getelementptr inbounds [4096 x i8], ptr %23, i64 0, i64 0
  %25 = getelementptr inbounds i8, ptr %24, i64 4096
  %26 = load ptr, ptr %4, align 8
  %27 = getelementptr inbounds %struct.FT_GZipFileRec_, ptr %26, i32 0, i32 9
  store ptr %25, ptr %27, align 8
  %28 = load ptr, ptr %4, align 8
  %29 = getelementptr inbounds %struct.FT_GZipFileRec_, ptr %28, i32 0, i32 9
  %30 = load ptr, ptr %29, align 8
  %31 = load ptr, ptr %4, align 8
  %32 = getelementptr inbounds %struct.FT_GZipFileRec_, ptr %31, i32 0, i32 8
  store ptr %30, ptr %32, align 8
  %33 = load ptr, ptr %4, align 8
  %34 = getelementptr inbounds %struct.FT_GZipFileRec_, ptr %33, i32 0, i32 7
  store i64 0, ptr %34, align 8
  %35 = load ptr, ptr %6, align 8
  store ptr %35, ptr %5, align 8
  %36 = load ptr, ptr %5, align 8
  %37 = call i32 @ft_gzip_check_header(ptr noundef %36)
  store i32 %37, ptr %8, align 4
  %38 = load i32, ptr %8, align 4
  %39 = icmp ne i32 %38, 0
  br i1 %39, label %40, label %41

40:                                               ; preds = %3
  br label %72

41:                                               ; preds = %3
  %42 = load ptr, ptr %5, align 8
  %43 = call i64 @FT_Stream_Pos(ptr noundef %42)
  %44 = load ptr, ptr %4, align 8
  %45 = getelementptr inbounds %struct.FT_GZipFileRec_, ptr %44, i32 0, i32 4
  store i64 %43, ptr %45, align 8
  %46 = load ptr, ptr %7, align 8
  %47 = getelementptr inbounds %struct.z_stream_s, ptr %46, i32 0, i32 8
  store ptr @ft_gzip_alloc, ptr %47, align 8
  %48 = load ptr, ptr %7, align 8
  %49 = getelementptr inbounds %struct.z_stream_s, ptr %48, i32 0, i32 9
  store ptr @ft_gzip_free, ptr %49, align 8
  %50 = load ptr, ptr %5, align 8
  %51 = getelementptr inbounds %struct.FT_StreamRec_, ptr %50, i32 0, i32 7
  %52 = load ptr, ptr %51, align 8
  %53 = load ptr, ptr %7, align 8
  %54 = getelementptr inbounds %struct.z_stream_s, ptr %53, i32 0, i32 10
  store ptr %52, ptr %54, align 8
  %55 = load ptr, ptr %7, align 8
  %56 = getelementptr inbounds %struct.z_stream_s, ptr %55, i32 0, i32 1
  store i32 0, ptr %56, align 8
  %57 = load ptr, ptr %4, align 8
  %58 = getelementptr inbounds %struct.FT_GZipFileRec_, ptr %57, i32 0, i32 6
  %59 = getelementptr inbounds [4096 x i8], ptr %58, i64 0, i64 0
  %60 = load ptr, ptr %7, align 8
  %61 = getelementptr inbounds %struct.z_stream_s, ptr %60, i32 0, i32 0
  store ptr %59, ptr %61, align 8
  %62 = load ptr, ptr %7, align 8
  %63 = call i32 @inflateInit2_(ptr noundef %62, i32 noundef -15, ptr noundef @.str, i32 noundef 112)
  %64 = icmp ne i32 %63, 0
  br i1 %64, label %70, label %65

65:                                               ; preds = %41
  %66 = load ptr, ptr %7, align 8
  %67 = getelementptr inbounds %struct.z_stream_s, ptr %66, i32 0, i32 0
  %68 = load ptr, ptr %67, align 8
  %69 = icmp ne ptr %68, null
  br i1 %69, label %71, label %70

70:                                               ; preds = %65, %41
  store i32 3, ptr %8, align 4
  br label %71

71:                                               ; preds = %70, %65
  br label %72

72:                                               ; preds = %71, %40
  %73 = load i32, ptr %8, align 4
  ret i32 %73
}

; Function Attrs: nounwind uwtable
define i32 @FT_Stream_OpenGzip(ptr noundef %0, ptr noundef %1) #0 {
  %3 = alloca ptr, align 8
  %4 = alloca ptr, align 8
  %5 = alloca i32, align 4
  %6 = alloca ptr, align 8
  %7 = alloca ptr, align 8
  %8 = alloca i64, align 8
  %9 = alloca ptr, align 8
  %10 = alloca i64, align 8
  store ptr %0, ptr %3, align 8
  store ptr %1, ptr %4, align 8
  store ptr null, ptr %7, align 8
  %11 = load ptr, ptr %3, align 8
  %12 = icmp ne ptr %11, null
  br i1 %12, label %13, label %16

13:                                               ; preds = %2
  %14 = load ptr, ptr %4, align 8
  %15 = icmp ne ptr %14, null
  br i1 %15, label %17, label %16

16:                                               ; preds = %13, %2
  store i32 40, ptr %5, align 4
  br label %120

17:                                               ; preds = %13
  %18 = load ptr, ptr %4, align 8
  %19 = getelementptr inbounds %struct.FT_StreamRec_, ptr %18, i32 0, i32 7
  %20 = load ptr, ptr %19, align 8
  store ptr %20, ptr %6, align 8
  %21 = load ptr, ptr %4, align 8
  %22 = call i32 @ft_gzip_check_header(ptr noundef %21)
  store i32 %22, ptr %5, align 4
  %23 = load i32, ptr %5, align 4
  %24 = icmp ne i32 %23, 0
  br i1 %24, label %25, label %26

25:                                               ; preds = %17
  br label %120

26:                                               ; preds = %17
  %27 = load ptr, ptr %3, align 8
  call void @llvm.memset.p0.i64(ptr align 8 %27, i8 0, i64 80, i1 false)
  %28 = load ptr, ptr %6, align 8
  %29 = load ptr, ptr %3, align 8
  %30 = getelementptr inbounds %struct.FT_StreamRec_, ptr %29, i32 0, i32 7
  store ptr %28, ptr %30, align 8
  %31 = load ptr, ptr %6, align 8
  %32 = call ptr @ft_mem_qalloc(ptr noundef %31, i64 noundef 8360, ptr noundef %5)
  store ptr %32, ptr %7, align 8
  %33 = load i32, ptr %5, align 4
  %34 = icmp ne i32 %33, 0
  br i1 %34, label %51, label %35

35:                                               ; preds = %26
  %36 = load ptr, ptr %7, align 8
  %37 = load ptr, ptr %3, align 8
  %38 = load ptr, ptr %4, align 8
  %39 = call i32 @ft_gzip_file_init(ptr noundef %36, ptr noundef %37, ptr noundef %38)
  store i32 %39, ptr %5, align 4
  %40 = load i32, ptr %5, align 4
  %41 = icmp ne i32 %40, 0
  br i1 %41, label %42, label %47

42:                                               ; preds = %35
  br label %43

43:                                               ; preds = %42
  %44 = load ptr, ptr %6, align 8
  %45 = load ptr, ptr %7, align 8
  call void @ft_mem_free(ptr noundef %44, ptr noundef %45)
  store ptr null, ptr %7, align 8
  br label %46

46:                                               ; preds = %43
  br label %120

47:                                               ; preds = %35
  %48 = load ptr, ptr %7, align 8
  %49 = load ptr, ptr %3, align 8
  %50 = getelementptr inbounds %struct.FT_StreamRec_, ptr %49, i32 0, i32 3
  store ptr %48, ptr %50, align 8
  br label %51

51:                                               ; preds = %47, %26
  %52 = load ptr, ptr %4, align 8
  %53 = call i64 @ft_gzip_get_uncompressed_size(ptr noundef %52)
  store i64 %53, ptr %8, align 8
  %54 = load i64, ptr %8, align 8
  %55 = icmp ne i64 %54, 0
  br i1 %55, label %56, label %101

56:                                               ; preds = %51
  %57 = load i64, ptr %8, align 8
  %58 = icmp ult i64 %57, 40960
  br i1 %58, label %59, label %101

59:                                               ; preds = %56
  store ptr null, ptr %9, align 8
  %60 = load ptr, ptr %6, align 8
  %61 = load i64, ptr %8, align 8
  %62 = call ptr @ft_mem_qalloc(ptr noundef %60, i64 noundef %61, ptr noundef %5)
  store ptr %62, ptr %9, align 8
  %63 = load i32, ptr %5, align 4
  %64 = icmp ne i32 %63, 0
  br i1 %64, label %100, label %65

65:                                               ; preds = %59
  %66 = load ptr, ptr %7, align 8
  %67 = load ptr, ptr %9, align 8
  %68 = load i64, ptr %8, align 8
  %69 = call i64 @ft_gzip_file_io(ptr noundef %66, i64 noundef 0, ptr noundef %67, i64 noundef %68)
  store i64 %69, ptr %10, align 8
  %70 = load i64, ptr %10, align 8
  %71 = load i64, ptr %8, align 8
  %72 = icmp eq i64 %70, %71
  br i1 %72, label %73, label %93

73:                                               ; preds = %65
  %74 = load ptr, ptr %7, align 8
  call void @ft_gzip_file_done(ptr noundef %74)
  br label %75

75:                                               ; preds = %73
  %76 = load ptr, ptr %6, align 8
  %77 = load ptr, ptr %7, align 8
  call void @ft_mem_free(ptr noundef %76, ptr noundef %77)
  store ptr null, ptr %7, align 8
  br label %78

78:                                               ; preds = %75
  %79 = load ptr, ptr %3, align 8
  %80 = getelementptr inbounds %struct.FT_StreamRec_, ptr %79, i32 0, i32 3
  store ptr null, ptr %80, align 8
  %81 = load i64, ptr %8, align 8
  %82 = load ptr, ptr %3, align 8
  %83 = getelementptr inbounds %struct.FT_StreamRec_, ptr %82, i32 0, i32 1
  store i64 %81, ptr %83, align 8
  %84 = load ptr, ptr %3, align 8
  %85 = getelementptr inbounds %struct.FT_StreamRec_, ptr %84, i32 0, i32 2
  store i64 0, ptr %85, align 8
  %86 = load ptr, ptr %9, align 8
  %87 = load ptr, ptr %3, align 8
  %88 = getelementptr inbounds %struct.FT_StreamRec_, ptr %87, i32 0, i32 0
  store ptr %86, ptr %88, align 8
  %89 = load ptr, ptr %3, align 8
  %90 = getelementptr inbounds %struct.FT_StreamRec_, ptr %89, i32 0, i32 5
  store ptr null, ptr %90, align 8
  %91 = load ptr, ptr %3, align 8
  %92 = getelementptr inbounds %struct.FT_StreamRec_, ptr %91, i32 0, i32 6
  store ptr @ft_gzip_stream_close, ptr %92, align 8
  br label %120

93:                                               ; preds = %65
  %94 = load ptr, ptr %7, align 8
  %95 = call i64 @ft_gzip_file_io(ptr noundef %94, i64 noundef 0, ptr noundef null, i64 noundef 0)
  br label %96

96:                                               ; preds = %93
  %97 = load ptr, ptr %6, align 8
  %98 = load ptr, ptr %9, align 8
  call void @ft_mem_free(ptr noundef %97, ptr noundef %98)
  store ptr null, ptr %9, align 8
  br label %99

99:                                               ; preds = %96
  br label %100

100:                                              ; preds = %99, %59
  store i32 0, ptr %5, align 4
  br label %101

101:                                              ; preds = %100, %56, %51
  %102 = load i64, ptr %8, align 8
  %103 = icmp ne i64 %102, 0
  br i1 %103, label %104, label %108

104:                                              ; preds = %101
  %105 = load i64, ptr %8, align 8
  %106 = load ptr, ptr %3, align 8
  %107 = getelementptr inbounds %struct.FT_StreamRec_, ptr %106, i32 0, i32 1
  store i64 %105, ptr %107, align 8
  br label %111

108:                                              ; preds = %101
  %109 = load ptr, ptr %3, align 8
  %110 = getelementptr inbounds %struct.FT_StreamRec_, ptr %109, i32 0, i32 1
  store i64 2147483647, ptr %110, align 8
  br label %111

111:                                              ; preds = %108, %104
  %112 = load ptr, ptr %3, align 8
  %113 = getelementptr inbounds %struct.FT_StreamRec_, ptr %112, i32 0, i32 2
  store i64 0, ptr %113, align 8
  %114 = load ptr, ptr %3, align 8
  %115 = getelementptr inbounds %struct.FT_StreamRec_, ptr %114, i32 0, i32 0
  store ptr null, ptr %115, align 8
  %116 = load ptr, ptr %3, align 8
  %117 = getelementptr inbounds %struct.FT_StreamRec_, ptr %116, i32 0, i32 5
  store ptr @ft_gzip_stream_io, ptr %117, align 8
  %118 = load ptr, ptr %3, align 8
  %119 = getelementptr inbounds %struct.FT_StreamRec_, ptr %118, i32 0, i32 6
  store ptr @ft_gzip_stream_close, ptr %119, align 8
  br label %120

120:                                              ; preds = %111, %78, %46, %25, %16
  %121 = load i32, ptr %5, align 4
  ret i32 %121
}