; Function Attrs: nounwind uwtable
define i32 @FT_Stream_OpenGzip(ptr noundef %0, ptr noundef %1) local_unnamed_addr #0 {
  %3 = alloca i32, align 4
  %4 = alloca i32, align 4
  %5 = icmp ne ptr %0, null
  %6 = icmp ne ptr %1, null
  %or.cond = and i1 %5, %6
  br i1 %or.cond, label %8, label %7

7:                                                ; preds = %2
  store i32 40, ptr %4, align 4
  br label %78

8:                                                ; preds = %2
  %9 = getelementptr inbounds i8, ptr %1, i64 56
  %10 = load ptr, ptr %9, align 8
  %11 = tail call fastcc i32 @ft_gzip_check_header(ptr noundef nonnull %1)
  store i32 %11, ptr %4, align 4
  %.not = icmp eq i32 %11, 0
  br i1 %.not, label %12, label %78

12:                                               ; preds = %8
  tail call void @llvm.memset.p0.i64(ptr noundef nonnull align 8 dereferenceable(80) %0, i8 0, i64 80, i1 false)
  %13 = getelementptr inbounds i8, ptr %0, i64 56
  store ptr %10, ptr %13, align 8
  %14 = call ptr @ft_mem_qalloc(ptr noundef %10, i64 noundef 8360, ptr noundef nonnull %4) #6
  %15 = load i32, ptr %4, align 4
  %.not51 = icmp eq i32 %15, 0
  br i1 %.not51, label %16, label %40

16:                                               ; preds = %12
  %17 = getelementptr inbounds i8, ptr %14, i64 24
  %18 = getelementptr inbounds i8, ptr %14, i64 8
  store ptr %0, ptr %18, align 8
  store ptr %1, ptr %14, align 8
  %19 = load ptr, ptr %13, align 8
  %20 = getelementptr inbounds i8, ptr %14, i64 16
  store ptr %19, ptr %20, align 8
  %21 = getelementptr inbounds i8, ptr %14, i64 8336
  %22 = getelementptr inbounds i8, ptr %14, i64 8352
  store ptr %21, ptr %22, align 8
  %23 = getelementptr inbounds i8, ptr %14, i64 8344
  store ptr %21, ptr %23, align 8
  store i64 0, ptr %21, align 8
  %24 = call fastcc i32 @ft_gzip_check_header(ptr noundef nonnull %1)
  %.not.i = icmp eq i32 %24, 0
  br i1 %.not.i, label %25, label %37

25:                                               ; preds = %16
  %26 = getelementptr inbounds i8, ptr %14, i64 4240
  %27 = call i64 @FT_Stream_Pos(ptr noundef nonnull %1) #6
  %28 = getelementptr inbounds i8, ptr %14, i64 136
  store i64 %27, ptr %28, align 8
  %29 = getelementptr inbounds i8, ptr %14, i64 88
  store ptr @ft_gzip_alloc, ptr %29, align 8
  %30 = getelementptr inbounds i8, ptr %14, i64 96
  store ptr @ft_gzip_free, ptr %30, align 8
  %31 = load ptr, ptr %9, align 8
  %32 = getelementptr inbounds i8, ptr %14, i64 104
  store ptr %31, ptr %32, align 8
  %33 = getelementptr inbounds i8, ptr %14, i64 32
  store i32 0, ptr %33, align 8
  store ptr %26, ptr %17, align 8
  %34 = call i32 @inflateInit2_(ptr noundef nonnull %17, i32 noundef -15, ptr noundef nonnull @.str, i32 noundef 112) #6
  %.not27.i = icmp eq i32 %34, 0
  br i1 %.not27.i, label %35, label %37

35:                                               ; preds = %25
  %36 = load ptr, ptr %17, align 8
  %.not28.i = icmp eq ptr %36, null
  br i1 %.not28.i, label %37, label %38

37:                                               ; preds = %25, %35, %16
  %.0.i.ph = phi i32 [ %24, %16 ], [ 3, %35 ], [ 3, %25 ]
  store i32 %.0.i.ph, ptr %4, align 4
  call void @ft_mem_free(ptr noundef %10, ptr noundef nonnull %14) #6
  br label %78

38:                                               ; preds = %35
  store i32 0, ptr %4, align 4
  %39 = getelementptr inbounds i8, ptr %0, i64 24
  store ptr %14, ptr %39, align 8
  br label %40

40:                                               ; preds = %38, %12
  call void @llvm.lifetime.start.p0(i64 4, ptr nonnull %3)
  %41 = getelementptr inbounds i8, ptr %1, i64 16
  %42 = load i64, ptr %41, align 8
  %43 = getelementptr inbounds i8, ptr %1, i64 8
  %44 = load i64, ptr %43, align 8
  %45 = add i64 %44, -4
  %46 = call i32 @FT_Stream_Seek(ptr noundef nonnull %1, i64 noundef %45) #6
  %.not.i55 = icmp eq i32 %46, 0
  br i1 %.not.i55, label %ft_gzip_get_uncompressed_size.exit, label %.thread

.thread:                                          ; preds = %40
  call void @llvm.lifetime.end.p0(i64 4, ptr nonnull %3)
  br label %72

ft_gzip_get_uncompressed_size.exit:               ; preds = %40
  %47 = call i32 @FT_Stream_ReadULongLE(ptr noundef nonnull %1, ptr noundef nonnull %3) #6
  %48 = load i32, ptr %3, align 4
  %.not6.i = icmp eq i32 %48, 0
  %narrow.i = select i1 %.not6.i, i32 %47, i32 0
  %spec.store.select.i = zext i32 %narrow.i to i64
  %49 = call i32 @FT_Stream_Seek(ptr noundef nonnull %1, i64 noundef %42) #6
  call void @llvm.lifetime.end.p0(i64 4, ptr nonnull %3)
  %50 = add nsw i64 %spec.store.select.i, -1
  %or.cond3 = icmp ult i64 %50, 40959
  br i1 %or.cond3, label %51, label %71

51:                                               ; preds = %ft_gzip_get_uncompressed_size.exit
  %52 = call ptr @ft_mem_qalloc(ptr noundef %10, i64 noundef %spec.store.select.i, ptr noundef nonnull %4) #6
  %53 = load i32, ptr %4, align 4
  %.not54 = icmp eq i32 %53, 0
  br i1 %.not54, label %54, label %70

54:                                               ; preds = %51
  %55 = call fastcc i64 @ft_gzip_file_io(ptr noundef %14, i64 noundef 0, ptr noundef %52, i64 noundef %spec.store.select.i)
  %56 = icmp eq i64 %55, %spec.store.select.i
  br i1 %56, label %57, label %68

57:                                               ; preds = %54
  %58 = getelementptr inbounds i8, ptr %14, i64 24
  %59 = call i32 @inflateEnd(ptr noundef nonnull %58) #6
  %60 = getelementptr inbounds i8, ptr %14, i64 88
  %61 = getelementptr inbounds i8, ptr %14, i64 48
  store ptr null, ptr %61, align 8
  %62 = getelementptr inbounds i8, ptr %14, i64 56
  store i32 0, ptr %62, align 8
  call void @llvm.memset.p0.i64(ptr noundef nonnull align 8 dereferenceable(36) %14, i8 0, i64 36, i1 false)
  call void @llvm.memset.p0.i64(ptr noundef nonnull align 8 dereferenceable(24) %60, i8 0, i64 24, i1 false)
  call void @ft_mem_free(ptr noundef %10, ptr noundef %14) #6
  %63 = getelementptr inbounds i8, ptr %0, i64 24
  store ptr null, ptr %63, align 8
  %64 = getelementptr inbounds i8, ptr %0, i64 8
  store i64 %spec.store.select.i, ptr %64, align 8
  %65 = getelementptr inbounds i8, ptr %0, i64 16
  store i64 0, ptr %65, align 8
  store ptr %52, ptr %0, align 8
  %66 = getelementptr inbounds i8, ptr %0, i64 40
  store ptr null, ptr %66, align 8
  %67 = getelementptr inbounds i8, ptr %0, i64 48
  store ptr @ft_gzip_stream_close, ptr %67, align 8
  br label %78

68:                                               ; preds = %54
  %69 = call fastcc i64 @ft_gzip_file_io(ptr noundef %14, i64 noundef 0, ptr noundef null, i64 noundef 0)
  call void @ft_mem_free(ptr noundef %10, ptr noundef %52) #6
  br label %70

70:                                               ; preds = %68, %51
  store i32 0, ptr %4, align 4
  br label %73

71:                                               ; preds = %ft_gzip_get_uncompressed_size.exit
  %.not53 = icmp eq i32 %narrow.i, 0
  br i1 %.not53, label %72, label %73

72:                                               ; preds = %.thread, %71
  br label %73

73:                                               ; preds = %71, %70, %72
  %.sink = phi i64 [ 2147483647, %72 ], [ %spec.store.select.i, %70 ], [ %spec.store.select.i, %71 ]
  %74 = getelementptr inbounds i8, ptr %0, i64 8
  store i64 %.sink, ptr %74, align 8
  %75 = getelementptr inbounds i8, ptr %0, i64 16
  store i64 0, ptr %75, align 8
  store ptr null, ptr %0, align 8
  %76 = getelementptr inbounds i8, ptr %0, i64 40
  store ptr @ft_gzip_stream_io, ptr %76, align 8
  %77 = getelementptr inbounds i8, ptr %0, i64 48
  store ptr @ft_gzip_stream_close, ptr %77, align 8
  br label %78

78:                                               ; preds = %8, %73, %57, %37, %7
  %79 = load i32, ptr %4, align 4
  ret i32 %79
}